; Function Attrs: nounwind uwtable
define noalias noundef nonnull ptr @l_Lean_withTraceNode___at_Lean_Elab_Tactic_NormCast_prove___spec__1___lambda__2(ptr noundef %0, i8 noundef zeroext %1, ptr noundef %2, ptr noundef %3, ptr noundef %4, ptr noundef %5, i8 noundef zeroext %6, double noundef %7, double noundef %8, ptr noundef %9, ptr noundef %10, ptr noundef %11, ptr noundef %12, ptr noundef %13, ptr noundef %14, ptr noundef %15, ptr noundef %16, ptr noundef %17) local_unnamed_addr #0 {
  %19 = icmp eq i8 %6, 0
  br i1 %19, label %20, label %25

20:                                               ; preds = %18
  %21 = load double, ptr @l_Lean_withTraceNode___at_Lean_Elab_Tactic_NormCast_proveEqUsingDown___spec__1___lambda__2___closed__1, align 8, !tbaa !16
  tail call void @lean_inc_heartbeat() #5
  %22 = tail call noalias ptr @mi_malloc_small(i64 noundef 48) #5
  %23 = icmp eq ptr %22, null
  br i1 %23, label %24, label %lean_alloc_ctor.exit

24:                                               ; preds = %20
  tail call void @lean_internal_panic_out_of_memory() #6
  unreachable

25:                                               ; preds = %18
  tail call void @lean_inc_heartbeat() #5
  %26 = tail call noalias ptr @mi_malloc_small(i64 noundef 48) #5
  %27 = icmp eq ptr %26, null
  br i1 %27, label %28, label %lean_alloc_ctor.exit

28:                                               ; preds = %25
  tail call void @lean_internal_panic_out_of_memory() #6
  unreachable

lean_alloc_ctor.exit:                             ; preds = %25, %20
  %.sink68 = phi ptr [ %22, %20 ], [ %26, %25 ]
  %.sink57 = phi double [ %21, %20 ], [ %7, %25 ]
  %.sink54 = phi double [ %21, %20 ], [ %8, %25 ]
  %29 = getelementptr inbounds nuw i8, ptr %.sink68, i64 4
  %30 = getelementptr inbounds nuw i8, ptr %.sink68, i64 40
  store i64 0, ptr %30, align 8, !tbaa !12
  store i32 1, ptr %.sink68, align 4, !tbaa !8
  store i32 131120, ptr %29, align 4
  %31 = getelementptr inbounds nuw i8, ptr %.sink68, i64 8
  store ptr %0, ptr %31, align 8, !tbaa !4
  %32 = getelementptr inbounds nuw i8, ptr %.sink68, i64 16
  store ptr %2, ptr %32, align 8, !tbaa !4
  %33 = getelementptr inbounds nuw i8, ptr %.sink68, i64 24
  store double %.sink57, ptr %33, align 8, !tbaa !16
  %34 = getelementptr inbounds nuw i8, ptr %.sink68, i64 32
  store double %.sink54, ptr %34, align 8, !tbaa !16
  store i8 %1, ptr %30, align 1, !tbaa !14
  %35 = tail call ptr @l_Lean_withTraceNode___at_Lean_Elab_Tactic_NormCast_prove___spec__1___lambda__1(ptr noundef %3, ptr noundef %4, ptr noundef %9, ptr noundef %5, ptr noundef nonnull %.sink68, ptr nonnull poison, ptr noundef %10, ptr noundef %11, ptr noundef %12, ptr noundef %13, ptr noundef %14, ptr noundef %15, ptr noundef %16, ptr noundef %17)
  ret ptr %35
}